#include <math.h>
#include <stdio.h>
#include <stdlib.h>
#include <string.h>

main()
{
      int x1,y1,x2,y2;
      int a[100][100],b[100][100],c[100][100]={0};
      scanf("%d %d",&x1,&y1);
      for(int i=0;i<x1;i++)
      {
              for(int j=0;j<y1;j++)
              {
                      scanf("%d",&a[i][j]);
              }
      }
      scanf("%d %d",&x2,&y2);
      for(int i=0;i<x2;i++)
      {
              for(int j=0;j<y2;j++)
              {
                      scanf("%d",&b[i][j]);
              }
      }
      for(int i=0;i<x1;i++)
      {
              for(int j=0;j<y2;j++)
              {
                      for(int k=0;k<y1;k++)
                      {
                      c[i][j]=c[i][j]+a[i][k]*b[k][j];
                      }
              }
      }
      for(int i=0;i<x1;i++)
      {
              for(int j=0;j<y2;j++)
              {
                      if(j==0)
                      printf("%d",c[i][j]);
                      else
                      printf(" %d",c[i][j]);
                      if(j==y2-1)
                      printf("\n",c[i][j]);
                      
              }
      }
}
