; ModuleID = '63/1981.c'
source_filename = "63/1981.c"
target datalayout = "e-m:e-p270:32:32-p271:32:32-p272:64:64-i64:64-f80:128-n8:16:32:64-S128"
target triple = "x86_64-pc-linux-gnu"

@.str = private unnamed_addr constant [6 x i8] c"%d %d\00", align 1
@.str.1 = private unnamed_addr constant [3 x i8] c"%d\00", align 1
@.str.2 = private unnamed_addr constant [4 x i8] c" %d\00", align 1
@.str.3 = private unnamed_addr constant [2 x i8] c"\0A\00", align 1

; Function Attrs: noinline nounwind uwtable
define dso_local i32 @main() #0 {
  %1 = alloca i32, align 4
  %2 = alloca i32, align 4
  %3 = alloca i32, align 4
  %4 = alloca i32, align 4
  %5 = alloca i32, align 4
  %6 = alloca [100 x [100 x i32]], align 16
  %7 = alloca [100 x [100 x i32]], align 16
  %8 = alloca [100 x [100 x i32]], align 16
  %9 = alloca i32, align 4
  %10 = alloca i32, align 4
  %11 = alloca i32, align 4
  %12 = alloca i32, align 4
  %13 = alloca i32, align 4
  %14 = alloca i32, align 4
  %15 = alloca i32, align 4
  %16 = alloca i32, align 4
  %17 = alloca i32, align 4
  store i32 0, i32* %1, align 4
  %18 = bitcast [100 x [100 x i32]]* %8 to i8*
  call void @llvm.memset.p0i8.i64(i8* align 16 %18, i8 0, i64 40000, i1 false)
  %19 = call i32 (i8*, ...) @__isoc99_scanf(i8* getelementptr inbounds ([6 x i8], [6 x i8]* @.str, i64 0, i64 0), i32* %2, i32* %3)
  store i32 0, i32* %9, align 4
  br label %20

20:                                               ; preds = %41, %0
  %21 = load i32, i32* %9, align 4
  %22 = load i32, i32* %2, align 4
  %23 = icmp slt i32 %21, %22
  br i1 %23, label %24, label %44

24:                                               ; preds = %20
  store i32 0, i32* %10, align 4
  br label %25

25:                                               ; preds = %37, %24
  %26 = load i32, i32* %10, align 4
  %27 = load i32, i32* %3, align 4
  %28 = icmp slt i32 %26, %27
  br i1 %28, label %29, label %40

29:                                               ; preds = %25
  %30 = load i32, i32* %9, align 4
  %31 = sext i32 %30 to i64
  %32 = getelementptr inbounds [100 x [100 x i32]], [100 x [100 x i32]]* %6, i64 0, i64 %31
  %33 = load i32, i32* %10, align 4
  %34 = sext i32 %33 to i64
  %35 = getelementptr inbounds [100 x i32], [100 x i32]* %32, i64 0, i64 %34
  %36 = call i32 (i8*, ...) @__isoc99_scanf(i8* getelementptr inbounds ([3 x i8], [3 x i8]* @.str.1, i64 0, i64 0), i32* %35)
  br label %37

37:                                               ; preds = %29
  %38 = load i32, i32* %10, align 4
  %39 = add nsw i32 %38, 1
  store i32 %39, i32* %10, align 4
  br label %25

40:                                               ; preds = %25
  br label %41

41:                                               ; preds = %40
  %42 = load i32, i32* %9, align 4
  %43 = add nsw i32 %42, 1
  store i32 %43, i32* %9, align 4
  br label %20

44:                                               ; preds = %20
  %45 = call i32 (i8*, ...) @__isoc99_scanf(i8* getelementptr inbounds ([6 x i8], [6 x i8]* @.str, i64 0, i64 0), i32* %4, i32* %5)
  store i32 0, i32* %11, align 4
  br label %46

46:                                               ; preds = %67, %44
  %47 = load i32, i32* %11, align 4
  %48 = load i32, i32* %4, align 4
  %49 = icmp slt i32 %47, %48
  br i1 %49, label %50, label %70

50:                                               ; preds = %46
  store i32 0, i32* %12, align 4
  br label %51

51:                                               ; preds = %63, %50
  %52 = load i32, i32* %12, align 4
  %53 = load i32, i32* %5, align 4
  %54 = icmp slt i32 %52, %53
  br i1 %54, label %55, label %66

55:                                               ; preds = %51
  %56 = load i32, i32* %11, align 4
  %57 = sext i32 %56 to i64
  %58 = getelementptr inbounds [100 x [100 x i32]], [100 x [100 x i32]]* %7, i64 0, i64 %57
  %59 = load i32, i32* %12, align 4
  %60 = sext i32 %59 to i64
  %61 = getelementptr inbounds [100 x i32], [100 x i32]* %58, i64 0, i64 %60
  %62 = call i32 (i8*, ...) @__isoc99_scanf(i8* getelementptr inbounds ([3 x i8], [3 x i8]* @.str.1, i64 0, i64 0), i32* %61)
  br label %63

63:                                               ; preds = %55
  %64 = load i32, i32* %12, align 4
  %65 = add nsw i32 %64, 1
  store i32 %65, i32* %12, align 4
  br label %51

66:                                               ; preds = %51
  br label %67

67:                                               ; preds = %66
  %68 = load i32, i32* %11, align 4
  %69 = add nsw i32 %68, 1
  store i32 %69, i32* %11, align 4
  br label %46

70:                                               ; preds = %46
  store i32 0, i32* %13, align 4
  br label %71

71:                                               ; preds = %123, %70
  %72 = load i32, i32* %13, align 4
  %73 = load i32, i32* %2, align 4
  %74 = icmp slt i32 %72, %73
  br i1 %74, label %75, label %126

75:                                               ; preds = %71
  store i32 0, i32* %14, align 4
  br label %76

76:                                               ; preds = %119, %75
  %77 = load i32, i32* %14, align 4
  %78 = load i32, i32* %5, align 4
  %79 = icmp slt i32 %77, %78
  br i1 %79, label %80, label %122

80:                                               ; preds = %76
  store i32 0, i32* %15, align 4
  br label %81

81:                                               ; preds = %115, %80
  %82 = load i32, i32* %15, align 4
  %83 = load i32, i32* %3, align 4
  %84 = icmp slt i32 %82, %83
  br i1 %84, label %85, label %118

85:                                               ; preds = %81
  %86 = load i32, i32* %13, align 4
  %87 = sext i32 %86 to i64
  %88 = getelementptr inbounds [100 x [100 x i32]], [100 x [100 x i32]]* %8, i64 0, i64 %87
  %89 = load i32, i32* %14, align 4
  %90 = sext i32 %89 to i64
  %91 = getelementptr inbounds [100 x i32], [100 x i32]* %88, i64 0, i64 %90
  %92 = load i32, i32* %91, align 4
  %93 = load i32, i32* %13, align 4
  %94 = sext i32 %93 to i64
  %95 = getelementptr inbounds [100 x [100 x i32]], [100 x [100 x i32]]* %6, i64 0, i64 %94
  %96 = load i32, i32* %15, align 4
  %97 = sext i32 %96 to i64
  %98 = getelementptr inbounds [100 x i32], [100 x i32]* %95, i64 0, i64 %97
  %99 = load i32, i32* %98, align 4
  %100 = load i32, i32* %15, align 4
  %101 = sext i32 %100 to i64
  %102 = getelementptr inbounds [100 x [100 x i32]], [100 x [100 x i32]]* %7, i64 0, i64 %101
  %103 = load i32, i32* %14, align 4
  %104 = sext i32 %103 to i64
  %105 = getelementptr inbounds [100 x i32], [100 x i32]* %102, i64 0, i64 %104
  %106 = load i32, i32* %105, align 4
  %107 = mul nsw i32 %99, %106
  %108 = add nsw i32 %92, %107
  %109 = load i32, i32* %13, align 4
  %110 = sext i32 %109 to i64
  %111 = getelementptr inbounds [100 x [100 x i32]], [100 x [100 x i32]]* %8, i64 0, i64 %110
  %112 = load i32, i32* %14, align 4
  %113 = sext i32 %112 to i64
  %114 = getelementptr inbounds [100 x i32], [100 x i32]* %111, i64 0, i64 %113
  store i32 %108, i32* %114, align 4
  br label %115

115:                                              ; preds = %85
  %116 = load i32, i32* %15, align 4
  %117 = add nsw i32 %116, 1
  store i32 %117, i32* %15, align 4
  br label %81

118:                                              ; preds = %81
  br label %119

119:                                              ; preds = %118
  %120 = load i32, i32* %14, align 4
  %121 = add nsw i32 %120, 1
  store i32 %121, i32* %14, align 4
  br label %76

122:                                              ; preds = %76
  br label %123

123:                                              ; preds = %122
  %124 = load i32, i32* %13, align 4
  %125 = add nsw i32 %124, 1
  store i32 %125, i32* %13, align 4
  br label %71

126:                                              ; preds = %71
  store i32 0, i32* %16, align 4
  br label %127

127:                                              ; preds = %176, %126
  %128 = load i32, i32* %16, align 4
  %129 = load i32, i32* %2, align 4
  %130 = icmp slt i32 %128, %129
  br i1 %130, label %131, label %179

131:                                              ; preds = %127
  store i32 0, i32* %17, align 4
  br label %132

132:                                              ; preds = %172, %131
  %133 = load i32, i32* %17, align 4
  %134 = load i32, i32* %5, align 4
  %135 = icmp slt i32 %133, %134
  br i1 %135, label %136, label %175

136:                                              ; preds = %132
  %137 = load i32, i32* %17, align 4
  %138 = icmp eq i32 %137, 0
  br i1 %138, label %139, label %148

139:                                              ; preds = %136
  %140 = load i32, i32* %16, align 4
  %141 = sext i32 %140 to i64
  %142 = getelementptr inbounds [100 x [100 x i32]], [100 x [100 x i32]]* %8, i64 0, i64 %141
  %143 = load i32, i32* %17, align 4
  %144 = sext i32 %143 to i64
  %145 = getelementptr inbounds [100 x i32], [100 x i32]* %142, i64 0, i64 %144
  %146 = load i32, i32* %145, align 4
  %147 = call i32 (i8*, ...) @printf(i8* getelementptr inbounds ([3 x i8], [3 x i8]* @.str.1, i64 0, i64 0), i32 %146)
  br label %157

148:                                              ; preds = %136
  %149 = load i32, i32* %16, align 4
  %150 = sext i32 %149 to i64
  %151 = getelementptr inbounds [100 x [100 x i32]], [100 x [100 x i32]]* %8, i64 0, i64 %150
  %152 = load i32, i32* %17, align 4
  %153 = sext i32 %152 to i64
  %154 = getelementptr inbounds [100 x i32], [100 x i32]* %151, i64 0, i64 %153
  %155 = load i32, i32* %154, align 4
  %156 = call i32 (i8*, ...) @printf(i8* getelementptr inbounds ([4 x i8], [4 x i8]* @.str.2, i64 0, i64 0), i32 %155)
  br label %157

157:                                              ; preds = %148, %139
  %158 = load i32, i32* %17, align 4
  %159 = load i32, i32* %5, align 4
  %160 = sub nsw i32 %159, 1
  %161 = icmp eq i32 %158, %160
  br i1 %161, label %162, label %171

162:                                              ; preds = %157
  %163 = load i32, i32* %16, align 4
  %164 = sext i32 %163 to i64
  %165 = getelementptr inbounds [100 x [100 x i32]], [100 x [100 x i32]]* %8, i64 0, i64 %164
  %166 = load i32, i32* %17, align 4
  %167 = sext i32 %166 to i64
  %168 = getelementptr inbounds [100 x i32], [100 x i32]* %165, i64 0, i64 %167
  %169 = load i32, i32* %168, align 4
  %170 = call i32 (i8*, ...) @printf(i8* getelementptr inbounds ([2 x i8], [2 x i8]* @.str.3, i64 0, i64 0), i32 %169)
  br label %171

171:                                              ; preds = %162, %157
  br label %172

172:                                              ; preds = %171
  %173 = load i32, i32* %17, align 4
  %174 = add nsw i32 %173, 1
  store i32 %174, i32* %17, align 4
  br label %132

175:                                              ; preds = %132
  br label %176

176:                                              ; preds = %175
  %177 = load i32, i32* %16, align 4
  %178 = add nsw i32 %177, 1
  store i32 %178, i32* %16, align 4
  br label %127

179:                                              ; preds = %127
  %180 = load i32, i32* %1, align 4
  ret i32 %180
}

; Function Attrs: argmemonly nounwind willreturn
declare void @llvm.memset.p0i8.i64(i8* nocapture writeonly, i8, i64, i1 immarg) #1

declare dso_local i32 @__isoc99_scanf(i8*, ...) #2

declare dso_local i32 @printf(i8*, ...) #2


!llvm.module.flags = !{!0}
!llvm.ident = !{!1}

!0 = !{i32 1, !"wchar_size", i32 4}
!1 = !{!"clang version 10.0.0-4ubuntu1 "}
